target datalayout = "e-m:e-p270:32:32-p271:32:32-p272:64:64-i64:64-i128:128-f80:128-n8:16:32:64-S128"
target triple = "x86_64-pc-linux-gnu"

%struct.Curl_easy = type { i32, i64, i64, ptr, %struct.Curl_llist_node, %struct.Curl_llist_node, i32, i32, %struct.Curl_message, %struct.easy_pollset, %struct.Names, ptr, ptr, ptr, ptr, %struct.SingleRequest, %struct.UserDefined, ptr, ptr, ptr, %struct.Progress, %struct.UrlState, ptr, %struct.PureInfo, %struct.curl_tlssessioninfo }
%struct.Curl_llist_node = type { ptr, ptr, ptr, ptr }
%struct.Curl_message = type { %struct.Curl_llist_node, %struct.CURLMsg }
%struct.CURLMsg = type { i32, ptr, %union.anon }
%union.anon = type { ptr }
%struct.easy_pollset = type { [5 x i32], i32, [5 x i8] }
%struct.Names = type { ptr, i32 }
%struct.SingleRequest = type <{ i64, i64, i64, i64, %struct.curltime, i32, i32, i32, i32, i64, i32, i32, i8, i8, [2 x i8], i32, ptr, ptr, %struct.bufq, i64, i64, ptr, ptr, %union.anon.0, ptr, i8, i32, [3 x i8] }>
%struct.curltime = type { i64, i32 }
%struct.bufq = type { ptr, ptr, ptr, ptr, i64, i64, i64, i32 }
%union.anon.0 = type { ptr }
%struct.UserDefined = type <{ ptr, ptr, ptr, ptr, ptr, ptr, i64, i64, i64, ptr, ptr, i64, ptr, ptr, ptr, ptr, ptr, ptr, ptr, ptr, ptr, ptr, ptr, ptr, ptr, ptr, ptr, ptr, ptr, ptr, ptr, ptr, ptr, ptr, ptr, i64, i64, i64, i64, i64, i64, i64, i64, i64, ptr, ptr, %struct.curl_mimepart, ptr, ptr, ptr, i64, %struct.ssl_config_data, %struct.ssl_config_data, ptr, i16, i8, i8, %struct.ssl_general_config, i32, i32, i32, [4 x i8], ptr, ptr, i64, i32, i8, i8, i8, i8, ptr, ptr, ptr, i32, [4 x i8], [74 x ptr], [8 x ptr], i32, i32, i32, [4 x i8], ptr, i32, [4 x i8], ptr, ptr, ptr, ptr, ptr, i32, i32, i32, i32, i32, i32, i32, i32, i64, ptr, ptr, i64, ptr, i64, ptr, ptr, ptr, ptr, i32, i16, i16, i16, i8, i8, i8, i8, i8, i8, i8, i8, i64, [6 x i8] }>
%struct.curl_mimepart = type { ptr, ptr, i32, i32, ptr, ptr, ptr, ptr, ptr, ptr, ptr, ptr, ptr, ptr, ptr, i64, %struct.mime_state, ptr, %struct.mime_encoder_state, i64 }
%struct.mime_state = type { i32, ptr, i64 }
%struct.mime_encoder_state = type { i64, i64, i64, [256 x i8] }
%struct.ssl_config_data = type { %struct.ssl_primary_config, i64, ptr, ptr, ptr, ptr, ptr, ptr, ptr, i16 }
%struct.ssl_primary_config = type { ptr, ptr, ptr, ptr, ptr, ptr, ptr, ptr, ptr, ptr, ptr, ptr, ptr, ptr, i8, i32, i8, i8 }
%struct.ssl_general_config = type { i32 }
%struct.Progress = type { i64, %struct.pgrs_dir, %struct.pgrs_dir, i64, i64, i32, i32, i64, i64, i64, i64, i64, i64, i64, i64, i64, %struct.curltime, %struct.curltime, %struct.curltime, %struct.curltime, %struct.curltime, [6 x i64], [6 x %struct.curltime], i32, i8 }
%struct.pgrs_dir = type { i64, i64, i64, %struct.pgrs_measure }
%struct.pgrs_measure = type { %struct.curltime, i64 }
%struct.UrlState = type { %struct.curltime, i64, i64, %struct.dynbuf, ptr, i64, ptr, i32, i32, i32, ptr, i32, i64, i32, ptr, %struct.digestdata, %struct.digestdata, %struct.auth, %struct.auth, %struct.Curl_async, ptr, i8, %struct.curltime, %struct.Curl_tree, %struct.Curl_llist, [15 x %struct.time_node], ptr, ptr, i64, i64, i64, i64, [32 x i8], i64, ptr, ptr, ptr, %struct.urlpieces, ptr, ptr, ptr, ptr, ptr, i64, %struct.dynbuf, %struct.Curl_llist, [2 x %struct.curl_header], ptr, i32, ptr, ptr, %struct.store_netrc, %struct.dynamically_allocated_data, i8, i8, i8, i8, i32 }
%struct.digestdata = type { ptr, ptr, ptr, ptr, ptr, ptr, i32, i8, i8 }
%struct.auth = type { i64, i64, i64, i8 }
%struct.Curl_async = type { ptr, ptr, ptr, ptr, i32, i32, i8 }
%struct.Curl_tree = type { ptr, ptr, ptr, ptr, %struct.curltime, ptr }
%struct.time_node = type { %struct.Curl_llist_node, %struct.curltime, i32 }
%struct.urlpieces = type { ptr, ptr, ptr, ptr, ptr, ptr, ptr, ptr }
%struct.dynbuf = type { ptr, i64, i64, i64 }
%struct.Curl_llist = type { ptr, ptr, ptr, i64 }
%struct.curl_header = type { ptr, ptr, i64, i64, i32, ptr }
%struct.store_netrc = type { %struct.dynbuf, ptr, i8 }
%struct.dynamically_allocated_data = type { ptr, ptr, ptr, ptr, ptr, ptr, ptr, ptr, ptr, ptr, ptr, ptr, ptr, ptr }
%struct.PureInfo = type { i32, i32, i32, i64, i64, i64, i64, i64, i64, i64, ptr, ptr, i64, i32, %struct.ip_quadruple, i32, ptr, i32, %struct.curl_certinfo, i32, i8 }
%struct.ip_quadruple = type { [46 x i8], [46 x i8], i32, i32 }
%struct.curl_certinfo = type { i32, ptr }
%struct.curl_tlssessioninfo = type { i32, ptr }
%struct.connectdata = type { %struct.Curl_llist_node, ptr, ptr, i64, ptr, i64, ptr, ptr, %struct.hostname, ptr, ptr, %struct.hostname, %struct.proxy_info, %struct.proxy_info, %struct.ip_quadruple, %struct.ip_quadruple, ptr, ptr, ptr, ptr, ptr, %struct.curltime, %struct.curltime, %struct.curltime, [2 x i32], [2 x ptr], [2 x ptr], [2 x ptr], %struct.anon, %struct.easy_pollset, %struct.ssl_primary_config, %struct.ssl_primary_config, %struct.ConnectBits, ptr, ptr, %struct.curltime, i32, i32, %struct.Curl_llist, i32, i32, %struct.ntlmdata, %struct.ntlmdata, %union.anon.1, ptr, ptr, i16, i32, i32, i32, i32, i16, i16, i8, i8, i8, i8, i8, i8, i8 }
%struct.hostname = type { ptr, ptr, ptr, ptr }
%struct.proxy_info = type { %struct.hostname, i32, i8, ptr, ptr }
%struct.anon = type { [2 x %struct.curltime], i32 }
%struct.ConnectBits = type { i64 }
%struct.ntlmdata = type { i32, [8 x i8], i32, ptr }
%union.anon.1 = type { %struct.ftp_conn }
%struct.ftp_conn = type { %struct.pingpong, ptr, ptr, ptr, ptr, ptr, ptr, ptr, i8, i64, ptr, i64, i32, i32, i32, i32, i32, i16, i8, i8, i8, i8, i8 }
%struct.pingpong = type { i64, i8, ptr, i64, i64, %struct.curltime, i64, %struct.dynbuf, %struct.dynbuf, i64, i64, ptr, ptr }
%struct.smb_conn = type { i32, ptr, ptr, ptr, [8 x i8], i32, i16, ptr, ptr, i64, i64, i64, i64 }
%struct.smb_request = type { i32, ptr, i16, i16, i32 }

@Curl_ccalloc = external global ptr, align 8
@Curl_cstrdup = external global ptr, align 8
@Curl_cfree = external global ptr, align 8
@.str.2 = private unnamed_addr constant [34 x i8] c"missing share in URL path for SMB\00", align 1

; Function Attrs: nounwind uwtable
define internal i32 @smb_parse_url_path(ptr noundef %0, ptr noundef %1) #0 {
  %3 = alloca i32, align 4
  %4 = alloca ptr, align 8
  %5 = alloca ptr, align 8
  %6 = alloca ptr, align 8
  %7 = alloca ptr, align 8
  %8 = alloca ptr, align 8
  %9 = alloca ptr, align 8
  %10 = alloca i32, align 4
  %11 = alloca i32, align 4
  store ptr %0, ptr %4, align 8, !tbaa !3
  store ptr %1, ptr %5, align 8, !tbaa !8
  call void @llvm.lifetime.start.p0(i64 8, ptr %6) #8
  %12 = load ptr, ptr %4, align 8, !tbaa !3
  %13 = getelementptr inbounds nuw %struct.Curl_easy, ptr %12, i32 0, i32 15
  %14 = getelementptr inbounds nuw %struct.SingleRequest, ptr %13, i32 0, i32 23
  %15 = load ptr, ptr %14, align 8, !tbaa !13
  store ptr %15, ptr %6, align 8, !tbaa !11
  call void @llvm.lifetime.start.p0(i64 8, ptr %7) #8
  %16 = load ptr, ptr %5, align 8, !tbaa !8
  %17 = getelementptr inbounds nuw %struct.connectdata, ptr %16, i32 0, i32 43
  store ptr %17, ptr %7, align 8, !tbaa !84
  call void @llvm.lifetime.start.p0(i64 8, ptr %8) #8
  call void @llvm.lifetime.start.p0(i64 8, ptr %9) #8
  call void @llvm.lifetime.start.p0(i64 4, ptr %10) #8
  %18 = load ptr, ptr %4, align 8, !tbaa !3
  %19 = getelementptr inbounds nuw %struct.Curl_easy, ptr %18, i32 0, i32 21
  %20 = getelementptr inbounds nuw %struct.UrlState, ptr %19, i32 0, i32 37
  %21 = getelementptr inbounds nuw %struct.urlpieces, ptr %20, i32 0, i32 6
  %22 = load ptr, ptr %21, align 8, !tbaa !142
  %23 = call i32 @Curl_urldecode(ptr noundef %22, i64 noundef 0, ptr noundef %8, ptr noundef null, i32 noundef 3)
  store i32 %23, ptr %10, align 4, !tbaa !107
  %24 = load i32, ptr %10, align 4, !tbaa !107
  %25 = icmp ne i32 %24, 0
  br i1 %25, label %26, label %28

26:                                               ; preds = %2
  %27 = load i32, ptr %10, align 4, !tbaa !107
  store i32 %27, ptr %3, align 4
  store i32 1, ptr %11, align 4
  br label %104

28:                                               ; preds = %2
  %29 = load ptr, ptr @Curl_cstrdup, align 8, !tbaa !10
  %30 = load ptr, ptr %8, align 8, !tbaa !103
  %31 = load i8, ptr %30, align 1, !tbaa !13
  %32 = sext i8 %31 to i32
  %33 = icmp eq i32 %32, 47
  br i1 %33, label %39, label %34

34:                                               ; preds = %28
  %35 = load ptr, ptr %8, align 8, !tbaa !103
  %36 = load i8, ptr %35, align 1, !tbaa !13
  %37 = sext i8 %36 to i32
  %38 = icmp eq i32 %37, 92
  br i1 %38, label %39, label %42

39:                                               ; preds = %34, %28
  %40 = load ptr, ptr %8, align 8, !tbaa !103
  %41 = getelementptr inbounds i8, ptr %40, i64 1
  br label %44

42:                                               ; preds = %34
  %43 = load ptr, ptr %8, align 8, !tbaa !103
  br label %44

44:                                               ; preds = %42, %39
  %45 = phi ptr [ %41, %39 ], [ %43, %42 ]
  %46 = call ptr %29(ptr noundef %45)
  %47 = load ptr, ptr %7, align 8, !tbaa !84
  %48 = getelementptr inbounds nuw %struct.smb_conn, ptr %47, i32 0, i32 3
  store ptr %46, ptr %48, align 8, !tbaa !88
  %49 = load ptr, ptr @Curl_cfree, align 8, !tbaa !10
  %50 = load ptr, ptr %8, align 8, !tbaa !103
  call void %49(ptr noundef %50)
  %51 = load ptr, ptr %7, align 8, !tbaa !84
  %52 = getelementptr inbounds nuw %struct.smb_conn, ptr %51, i32 0, i32 3
  %53 = load ptr, ptr %52, align 8, !tbaa !88
  %54 = icmp ne ptr %53, null
  br i1 %54, label %56, label %55

55:                                               ; preds = %44
  store i32 27, ptr %3, align 4
  store i32 1, ptr %11, align 4
  br label %104

56:                                               ; preds = %44
  %57 = load ptr, ptr %7, align 8, !tbaa !84
  %58 = getelementptr inbounds nuw %struct.smb_conn, ptr %57, i32 0, i32 3
  %59 = load ptr, ptr %58, align 8, !tbaa !88
  %60 = call ptr @strchr(ptr noundef %59, i32 noundef 47) #9
  store ptr %60, ptr %9, align 8, !tbaa !103
  %61 = load ptr, ptr %9, align 8, !tbaa !103
  %62 = icmp ne ptr %61, null
  br i1 %62, label %68, label %63

63:                                               ; preds = %56
  %64 = load ptr, ptr %7, align 8, !tbaa !84
  %65 = getelementptr inbounds nuw %struct.smb_conn, ptr %64, i32 0, i32 3
  %66 = load ptr, ptr %65, align 8, !tbaa !88
  %67 = call ptr @strchr(ptr noundef %66, i32 noundef 92) #9
  store ptr %67, ptr %9, align 8, !tbaa !103
  br label %68

68:                                               ; preds = %63, %56
  %69 = load ptr, ptr %9, align 8, !tbaa !103
  %70 = icmp ne ptr %69, null
  br i1 %70, label %82, label %71

71:                                               ; preds = %68
  br label %72

72:                                               ; preds = %71
  %73 = load ptr, ptr @Curl_cfree, align 8, !tbaa !10
  %74 = load ptr, ptr %7, align 8, !tbaa !84
  %75 = getelementptr inbounds nuw %struct.smb_conn, ptr %74, i32 0, i32 3
  %76 = load ptr, ptr %75, align 8, !tbaa !88
  call void %73(ptr noundef %76)
  %77 = load ptr, ptr %7, align 8, !tbaa !84
  %78 = getelementptr inbounds nuw %struct.smb_conn, ptr %77, i32 0, i32 3
  store ptr null, ptr %78, align 8, !tbaa !88
  br label %79

79:                                               ; preds = %72
  br label %80

80:                                               ; preds = %79
  %81 = load ptr, ptr %4, align 8, !tbaa !3
  call void (ptr, ptr, ...) @Curl_failf(ptr noundef %81, ptr noundef @.str.2)
  store i32 3, ptr %3, align 4
  store i32 1, ptr %11, align 4
  br label %104

82:                                               ; preds = %68
  %83 = load ptr, ptr %9, align 8, !tbaa !103
  %84 = getelementptr inbounds nuw i8, ptr %83, i32 1
  store ptr %84, ptr %9, align 8, !tbaa !103
  store i8 0, ptr %83, align 1, !tbaa !13
  %85 = load ptr, ptr %9, align 8, !tbaa !103
  %86 = load ptr, ptr %6, align 8, !tbaa !11
  %87 = getelementptr inbounds nuw %struct.smb_request, ptr %86, i32 0, i32 1
  store ptr %85, ptr %87, align 8, !tbaa !143
  br label %88

88:                                               ; preds = %100, %82
  %89 = load ptr, ptr %9, align 8, !tbaa !103
  %90 = load i8, ptr %89, align 1, !tbaa !13
  %91 = icmp ne i8 %90, 0
  br i1 %91, label %92, label %103

92:                                               ; preds = %88
  %93 = load ptr, ptr %9, align 8, !tbaa !103
  %94 = load i8, ptr %93, align 1, !tbaa !13
  %95 = sext i8 %94 to i32
  %96 = icmp eq i32 %95, 47
  br i1 %96, label %97, label %99

97:                                               ; preds = %92
  %98 = load ptr, ptr %9, align 8, !tbaa !103
  store i8 92, ptr %98, align 1, !tbaa !13
  br label %99

99:                                               ; preds = %97, %92
  br label %100

100:                                              ; preds = %99
  %101 = load ptr, ptr %9, align 8, !tbaa !103
  %102 = getelementptr inbounds nuw i8, ptr %101, i32 1
  store ptr %102, ptr %9, align 8, !tbaa !103
  br label %88, !llvm.loop !144

103:                                              ; preds = %88
  store i32 0, ptr %3, align 4
  store i32 1, ptr %11, align 4
  br label %104

104:                                              ; preds = %103, %80, %55, %26
  call void @llvm.lifetime.end.p0(i64 4, ptr %10) #8
  call void @llvm.lifetime.end.p0(i64 8, ptr %9) #8
  call void @llvm.lifetime.end.p0(i64 8, ptr %8) #8
  call void @llvm.lifetime.end.p0(i64 8, ptr %7) #8
  call void @llvm.lifetime.end.p0(i64 8, ptr %6) #8
  %105 = load i32, ptr %3, align 4
  ret i32 %105
}

; Function Attrs: nounwind uwtable
define internal i32 @smb_setup_connection(ptr noundef %0, ptr noundef %1) #0 {
  %3 = alloca i32, align 4
  %4 = alloca ptr, align 8
  %5 = alloca ptr, align 8
  %6 = alloca ptr, align 8
  %7 = alloca i32, align 4
  store ptr %0, ptr %4, align 8, !tbaa !3
  store ptr %1, ptr %5, align 8, !tbaa !8
  call void @llvm.lifetime.start.p0(i64 8, ptr %6) #8
  %8 = load ptr, ptr @Curl_ccalloc, align 8, !tbaa !10
  %9 = call ptr %8(i64 noundef 1, i64 noundef 24)
  store ptr %9, ptr %6, align 8, !tbaa !11
  %10 = load ptr, ptr %4, align 8, !tbaa !3
  %11 = getelementptr inbounds nuw %struct.Curl_easy, ptr %10, i32 0, i32 15
  %12 = getelementptr inbounds nuw %struct.SingleRequest, ptr %11, i32 0, i32 23
  store ptr %9, ptr %12, align 8, !tbaa !13
  %13 = load ptr, ptr %6, align 8, !tbaa !11
  %14 = icmp ne ptr %13, null
  br i1 %14, label %16, label %15

15:                                               ; preds = %2
  store i32 27, ptr %3, align 4
  store i32 1, ptr %7, align 4
  br label %20

16:                                               ; preds = %2
  %17 = load ptr, ptr %4, align 8, !tbaa !3
  %18 = load ptr, ptr %5, align 8, !tbaa !8
  %19 = call i32 @smb_parse_url_path(ptr noundef %17, ptr noundef %18)
  store i32 %19, ptr %3, align 4
  store i32 1, ptr %7, align 4
  br label %20

20:                                               ; preds = %16, %15
  call void @llvm.lifetime.end.p0(i64 8, ptr %6) #8
  %21 = load i32, ptr %3, align 4
  ret i32 %21
}