; Function Attrs: nounwind uwtable
define internal i32 @smb_setup_connection(ptr noundef initializes((440, 448)) %0, ptr noundef captures(none) %1) #0 {
  %3 = alloca ptr, align 8
  %4 = load ptr, ptr @Curl_ccalloc, align 8, !tbaa !3
  %5 = tail call ptr %4(i64 noundef 1, i64 noundef 24) #11
  %6 = getelementptr inbounds nuw i8, ptr %0, i64 440
  store ptr %5, ptr %6, align 8, !tbaa !7
  %.not = icmp eq ptr %5, null
  br i1 %.not, label %37, label %7

7:                                                ; preds = %2
  call void @llvm.lifetime.start.p0(i64 8, ptr nonnull %3) #11
  %8 = getelementptr inbounds nuw i8, ptr %0, i64 4616
  %9 = load ptr, ptr %8, align 8, !tbaa !8
  %10 = call i32 @Curl_urldecode(ptr noundef %9, i64 noundef 0, ptr noundef nonnull %3, ptr noundef null, i32 noundef 3) #11
  %.not.i = icmp eq i32 %10, 0
  br i1 %.not.i, label %11, label %smb_parse_url_path.exit

11:                                               ; preds = %7
  %12 = load ptr, ptr @Curl_cstrdup, align 8, !tbaa !3
  %13 = load ptr, ptr %3, align 8, !tbaa !77
  %14 = load i8, ptr %13, align 1, !tbaa !7
  switch i8 %14, label %17 [
    i8 47, label %15
    i8 92, label %15
  ]

15:                                               ; preds = %11, %11
  %16 = getelementptr inbounds nuw i8, ptr %13, i64 1
  br label %17

17:                                               ; preds = %15, %11
  %18 = phi ptr [ %16, %15 ], [ %13, %11 ]
  %19 = call ptr %12(ptr noundef nonnull %18) #11
  %20 = getelementptr inbounds nuw i8, ptr %1, i64 1112
  store ptr %19, ptr %20, align 8, !tbaa !78
  %21 = load ptr, ptr @Curl_cfree, align 8, !tbaa !3
  %22 = load ptr, ptr %3, align 8, !tbaa !77
  call void %21(ptr noundef %22) #11
  %23 = load ptr, ptr %20, align 8, !tbaa !78
  %.not27.i = icmp eq ptr %23, null
  br i1 %.not27.i, label %smb_parse_url_path.exit, label %24

24:                                               ; preds = %17
  %25 = call ptr @strchr(ptr noundef nonnull dereferenceable(1) %23, i32 noundef 47) #12
  %.not28.i = icmp eq ptr %25, null
  br i1 %.not28.i, label %26, label %.thread.i

26:                                               ; preds = %24
  %27 = call ptr @strchr(ptr noundef nonnull dereferenceable(1) %23, i32 noundef 92) #12
  %.not29.i = icmp eq ptr %27, null
  br i1 %.not29.i, label %28, label %.thread.i

28:                                               ; preds = %26
  %29 = load ptr, ptr @Curl_cfree, align 8, !tbaa !3
  call void %29(ptr noundef nonnull %23) #11
  store ptr null, ptr %20, align 8, !tbaa !78
  call void (ptr, ptr, ...) @Curl_failf(ptr noundef nonnull %0, ptr noundef nonnull @.str.2) #11
  br label %smb_parse_url_path.exit

.thread.i:                                        ; preds = %26, %24
  %.02133.i = phi ptr [ %27, %26 ], [ %25, %24 ]
  %30 = getelementptr inbounds nuw i8, ptr %.02133.i, i64 1
  store i8 0, ptr %.02133.i, align 1, !tbaa !7
  %31 = getelementptr inbounds nuw i8, ptr %5, i64 8
  store ptr %30, ptr %31, align 8, !tbaa !80
  br label %32

32:                                               ; preds = %35, %.thread.i
  %.1.i = phi ptr [ %30, %.thread.i ], [ %36, %35 ]
  %33 = load i8, ptr %.1.i, align 1, !tbaa !7
  switch i8 %33, label %35 [
    i8 0, label %smb_parse_url_path.exit
    i8 47, label %34
  ]

34:                                               ; preds = %32
  store i8 92, ptr %.1.i, align 1, !tbaa !7
  br label %35

35:                                               ; preds = %34, %32
  %36 = getelementptr inbounds nuw i8, ptr %.1.i, i64 1
  br label %32, !llvm.loop !82

smb_parse_url_path.exit:                          ; preds = %32, %7, %17, %28
  %.0.i = phi i32 [ 3, %28 ], [ %10, %7 ], [ 27, %17 ], [ 0, %32 ]
  call void @llvm.lifetime.end.p0(i64 8, ptr nonnull %3) #11
  br label %37

37:                                               ; preds = %2, %smb_parse_url_path.exit
  %.0 = phi i32 [ %.0.i, %smb_parse_url_path.exit ], [ 27, %2 ]
  ret i32 %.0
}